target datalayout = "e-m:e-p270:32:32-p271:32:32-p272:64:64-i64:64-i128:128-f80:128-n8:16:32:64-S128"
target triple = "x86_64-pc-linux-gnu"

@.str = private unnamed_addr constant [7 x i8] c"string\00", align 1
@.str.1 = private unnamed_addr constant [7 x i8] c"gmatch\00", align 1
@.str.2 = private unnamed_addr constant [6 x i8] c"gfind\00", align 1
@.str.39 = private unnamed_addr constant [1 x i8] zeroinitializer, align 1
@.str.40 = private unnamed_addr constant [8 x i8] c"__index\00", align 1

; Function Attrs: nounwind uwtable
define internal void @createmetatable(ptr noundef %0) #0 {
  %2 = alloca ptr, align 8
  store ptr %0, ptr %2, align 8, !tbaa !4
  %3 = load ptr, ptr %2, align 8, !tbaa !4
  call void @lua_createtable(ptr noundef %3, i32 noundef 0, i32 noundef 1)
  %4 = load ptr, ptr %2, align 8, !tbaa !4
  call void @lua_pushlstring(ptr noundef %4, ptr noundef @.str.39, i64 noundef 0)
  %5 = load ptr, ptr %2, align 8, !tbaa !4
  call void @lua_pushvalue(ptr noundef %5, i32 noundef -2)
  %6 = load ptr, ptr %2, align 8, !tbaa !4
  %7 = call i32 @lua_setmetatable(ptr noundef %6, i32 noundef -2)
  %8 = load ptr, ptr %2, align 8, !tbaa !4
  call void @lua_settop(ptr noundef %8, i32 noundef -2)
  %9 = load ptr, ptr %2, align 8, !tbaa !4
  call void @lua_pushvalue(ptr noundef %9, i32 noundef -2)
  %10 = load ptr, ptr %2, align 8, !tbaa !4
  call void @lua_setfield(ptr noundef %10, i32 noundef -2, ptr noundef @.str.40)
  %11 = load ptr, ptr %2, align 8, !tbaa !4
  call void @lua_settop(ptr noundef %11, i32 noundef -2)
  ret void
}

; Function Attrs: nounwind uwtable
define dso_local i32 @luaopen_string(ptr noundef %0) #0 {
  %2 = alloca ptr, align 8
  store ptr %0, ptr %2, align 8, !tbaa !4
  %3 = load ptr, ptr %2, align 8, !tbaa !4
  call void @luaL_register(ptr noundef %3, ptr noundef @.str, ptr noundef @strlib)
  %4 = load ptr, ptr %2, align 8, !tbaa !4
  call void @lua_getfield(ptr noundef %4, i32 noundef -1, ptr noundef @.str.1)
  %5 = load ptr, ptr %2, align 8, !tbaa !4
  call void @lua_setfield(ptr noundef %5, i32 noundef -2, ptr noundef @.str.2)
  %6 = load ptr, ptr %2, align 8, !tbaa !4
  call void @createmetatable(ptr noundef %6)
  ret i32 1
}