; Function Attrs: nounwind uwtable
define dso_local noundef i32 @luaopen_string(ptr noundef %0) local_unnamed_addr #0 {
  tail call void @luaL_register(ptr noundef %0, ptr noundef nonnull @.str, ptr noundef nonnull @strlib) #10
  tail call void @lua_getfield(ptr noundef %0, i32 noundef -1, ptr noundef nonnull @.str.1) #10
  tail call void @lua_setfield(ptr noundef %0, i32 noundef -2, ptr noundef nonnull @.str.2) #10
  tail call void @lua_createtable(ptr noundef %0, i32 noundef 0, i32 noundef 1) #10
  tail call void @lua_pushlstring(ptr noundef %0, ptr noundef nonnull @.str.39, i64 noundef 0) #10
  tail call void @lua_pushvalue(ptr noundef %0, i32 noundef -2) #10
  %2 = tail call i32 @lua_setmetatable(ptr noundef %0, i32 noundef -2) #10
  tail call void @lua_settop(ptr noundef %0, i32 noundef -2) #10
  tail call void @lua_pushvalue(ptr noundef %0, i32 noundef -2) #10
  tail call void @lua_setfield(ptr noundef %0, i32 noundef -2, ptr noundef nonnull @.str.40) #10
  tail call void @lua_settop(ptr noundef %0, i32 noundef -2) #10
  ret i32 1
}